target datalayout = "e-m:e-p270:32:32-p271:32:32-p272:64:64-i64:64-i128:128-f80:128-n8:16:32:64-S128"
target triple = "x86_64-pc-linux-gnu"

%"struct.std::_Rb_tree_header" = type { %"struct.std::_Rb_tree_node_base", i64 }
%"struct.std::_Rb_tree_node_base" = type { i32, ptr, ptr, ptr }
%"class.(anonymous namespace)::MergeCondVisitor" = type { %class.VNVisitor, %class.VDouble0, %class.VDouble0, %class.VDouble0, %class.VDouble0, ptr, ptr, ptr, ptr, i32, ptr, ptr }
%class.VNVisitor = type { %class.VNVisitorConst, %class.VNDeleter }
%class.VNVisitorConst = type { ptr }
%class.VNDeleter = type { %"class.std::vector" }
%"class.std::vector" = type { %"struct.std::_Vector_base" }
%"struct.std::_Vector_base" = type { %"struct.std::_Vector_base<AstNode *, std::allocator<AstNode *>>::_Vector_impl" }
%"struct.std::_Vector_base<AstNode *, std::allocator<AstNode *>>::_Vector_impl" = type { %"struct.std::_Vector_base<AstNode *, std::allocator<AstNode *>>::_Vector_impl_data" }
%"struct.std::_Vector_base<AstNode *, std::allocator<AstNode *>>::_Vector_impl_data" = type { ptr, ptr, ptr }
%class.VDouble0 = type { double }
%"struct.(anonymous namespace)::StmtProperties" = type { ptr, %"class.std::set.62", %"class.std::set.62", i8, ptr }
%"class.std::set.62" = type { %"class.std::_Rb_tree.63" }
%"class.std::_Rb_tree.63" = type { %"struct.std::_Rb_tree<const AstVar *, const AstVar *, std::_Identity<const AstVar *>, std::less<const AstVar *>>::_Rb_tree_impl" }
%"struct.std::_Rb_tree<const AstVar *, const AstVar *, std::_Identity<const AstVar *>, std::less<const AstVar *>>::_Rb_tree_impl" = type { %"struct.std::_Rb_tree_key_compare.67", %"struct.std::_Rb_tree_header" }
%"struct.std::_Rb_tree_key_compare.67" = type { %"struct.std::less.68" }
%"struct.std::less.68" = type { i8 }
%class.AstNode = type { ptr, ptr, ptr, ptr, ptr, ptr, ptr, ptr, %class.VNType, %struct.anon, i8, i32, ptr, ptr, ptr, ptr, %class.VNUser, i32, i32, %class.VNUser, %class.VNUser, i32, i32, %class.VNUser }
%class.VNType = type { i16 }
%struct.anon = type { i8 }
%class.VNUser = type { %union.anon.52 }
%union.anon.52 = type { ptr }
%class.V3ErrorCode = type { i8 }
%"struct.std::_Rb_tree_node" = type { %"struct.std::_Rb_tree_node_base", %"struct.__gnu_cxx::__aligned_membuf" }
%"struct.__gnu_cxx::__aligned_membuf" = type { [8 x i8] }
%"struct.std::_Rb_tree_const_iterator" = type { ptr }

@_ZN12VNUser1InUse12s_userCntGblE = external global i32, align 4
@_ZN12VNUser3InUse12s_userCntGblE = external global i32, align 4
@.str.443 = private unnamed_addr constant [122 x i8] c"generated/home/dtcxzyw/WorkSpace/Projects/compilers/llvm-opt-benchmark/bench/verilator/verilator/src/V3AstUserAllocator.h\00", align 1
@.str.444 = private unnamed_addr constant [35 x i8] c"Missing User data on const AstNode\00", align 1

; Function Attrs: mustprogress nounwind uwtable
define linkonce_odr dso_local noundef ptr @_ZNK9__gnu_cxx16__aligned_membufIPK6AstVarE7_M_addrEv(ptr noundef nonnull align 8 dereferenceable(8) %0) #5 comdat align 2 {
  %2 = alloca ptr, align 8
  store ptr %0, ptr %2, align 8
  %3 = load ptr, ptr %2, align 8
  %4 = getelementptr inbounds %"struct.__gnu_cxx::__aligned_membuf", ptr %3, i32 0, i32 0
  ret ptr %4
}

; Function Attrs: mustprogress nounwind uwtable
define linkonce_odr dso_local noundef ptr @_ZNK9__gnu_cxx16__aligned_membufIPK6AstVarE6_M_ptrEv(ptr noundef nonnull align 8 dereferenceable(8) %0) #5 comdat align 2 {
  %2 = alloca ptr, align 8
  store ptr %0, ptr %2, align 8
  %3 = load ptr, ptr %2, align 8
  %4 = call noundef ptr @_ZNK9__gnu_cxx16__aligned_membufIPK6AstVarE7_M_addrEv(ptr noundef nonnull align 8 dereferenceable(8) %3) #3
  ret ptr %4
}

; Function Attrs: mustprogress nounwind uwtable
define linkonce_odr dso_local void @_ZNSt23_Rb_tree_const_iteratorIPK6AstVarEC2EPKSt18_Rb_tree_node_base(ptr noundef nonnull align 8 dereferenceable(8) %0, ptr noundef %1) unnamed_addr #5 comdat align 2 {
  %3 = alloca ptr, align 8
  %4 = alloca ptr, align 8
  store ptr %0, ptr %3, align 8
  store ptr %1, ptr %4, align 8
  %5 = load ptr, ptr %3, align 8
  %6 = getelementptr inbounds %"struct.std::_Rb_tree_const_iterator", ptr %5, i32 0, i32 0
  %7 = load ptr, ptr %4, align 8
  store ptr %7, ptr %6, align 8
  ret void
}

; Function Attrs: mustprogress nounwind uwtable
define linkonce_odr dso_local void @_ZN6VNUserC2Ei(ptr noundef nonnull align 8 dereferenceable(8) %0, i32 noundef %1) unnamed_addr #5 comdat align 2 {
  %3 = alloca ptr, align 8
  %4 = alloca i32, align 4
  store ptr %0, ptr %3, align 8
  store i32 %1, ptr %4, align 4
  %5 = load ptr, ptr %3, align 8
  %6 = getelementptr inbounds %class.VNUser, ptr %5, i32 0, i32 0
  store ptr null, ptr %6, align 8
  %7 = load i32, ptr %4, align 4
  %8 = getelementptr inbounds %class.VNUser, ptr %5, i32 0, i32 0
  store i32 %7, ptr %8, align 8
  ret void
}

; Function Attrs: mustprogress nounwind uwtable
define linkonce_odr dso_local noundef i32 @_ZNK6VNUser5toIntEv(ptr noundef nonnull align 8 dereferenceable(8) %0) #5 comdat align 2 {
  %2 = alloca ptr, align 8
  store ptr %0, ptr %2, align 8
  %3 = load ptr, ptr %2, align 8
  %4 = getelementptr inbounds %class.VNUser, ptr %3, i32 0, i32 0
  %5 = load i32, ptr %4, align 8
  ret i32 %5
}

; Function Attrs: mustprogress uwtable
define linkonce_odr dso_local ptr @_ZNK7AstNode6user1uEv(ptr noundef nonnull align 8 dereferenceable(152) %0) #4 comdat align 2 {
  %2 = alloca %class.VNUser, align 8
  %3 = alloca ptr, align 8
  store ptr %0, ptr %3, align 8
  %4 = load ptr, ptr %3, align 8
  %5 = getelementptr inbounds %class.AstNode, ptr %4, i32 0, i32 17
  %6 = load i32, ptr %5, align 8
  %7 = load i32, ptr @_ZN12VNUser1InUse12s_userCntGblE, align 4
  %8 = icmp eq i32 %6, %7
  br i1 %8, label %9, label %11

9:                                                ; preds = %1
  %10 = getelementptr inbounds %class.AstNode, ptr %4, i32 0, i32 16
  call void @llvm.memcpy.p0.p0.i64(ptr align 8 %2, ptr align 8 %10, i64 8, i1 false)
  br label %12

11:                                               ; preds = %1
  call void @_ZN6VNUserC2Ei(ptr noundef nonnull align 8 dereferenceable(8) %2, i32 noundef 0)
  br label %12

12:                                               ; preds = %11, %9
  %13 = getelementptr inbounds %class.VNUser, ptr %2, i32 0, i32 0
  %14 = getelementptr inbounds %union.anon.52, ptr %13, i32 0, i32 0
  %15 = load ptr, ptr %14, align 8
  ret ptr %15
}

; Function Attrs: mustprogress nounwind uwtable
define linkonce_odr dso_local noundef ptr @_ZNKSt13_Rb_tree_nodeIPK6AstVarE9_M_valptrEv(ptr noundef nonnull align 8 dereferenceable(40) %0) #5 comdat align 2 {
  %2 = alloca ptr, align 8
  store ptr %0, ptr %2, align 8
  %3 = load ptr, ptr %2, align 8
  %4 = getelementptr inbounds %"struct.std::_Rb_tree_node", ptr %3, i32 0, i32 1
  %5 = call noundef ptr @_ZNK9__gnu_cxx16__aligned_membufIPK6AstVarE6_M_ptrEv(ptr noundef nonnull align 8 dereferenceable(8) %4) #3
  ret ptr %5
}

; Function Attrs: mustprogress nounwind uwtable
define linkonce_odr dso_local ptr @_ZNKSt8_Rb_treeIPK6AstVarS2_St9_IdentityIS2_ESt4lessIS2_ESaIS2_EE3endEv(ptr noundef nonnull align 8 dereferenceable(48) %0) #5 comdat align 2 {
  %2 = alloca %"struct.std::_Rb_tree_const_iterator", align 8
  %3 = alloca ptr, align 8
  store ptr %0, ptr %3, align 8
  %4 = load ptr, ptr %3, align 8
  %5 = getelementptr inbounds %"class.std::_Rb_tree.63", ptr %4, i32 0, i32 0
  %6 = getelementptr inbounds i8, ptr %5, i64 8
  %7 = getelementptr inbounds %"struct.std::_Rb_tree_header", ptr %6, i32 0, i32 0
  call void @_ZNSt23_Rb_tree_const_iteratorIPK6AstVarEC2EPKSt18_Rb_tree_node_base(ptr noundef nonnull align 8 dereferenceable(8) %2, ptr noundef %7) #3
  %8 = getelementptr inbounds %"struct.std::_Rb_tree_const_iterator", ptr %2, i32 0, i32 0
  %9 = load ptr, ptr %8, align 8
  ret ptr %9
}

; Function Attrs: mustprogress nounwind uwtable
define linkonce_odr dso_local ptr @_ZNKSt8_Rb_treeIPK6AstVarS2_St9_IdentityIS2_ESt4lessIS2_ESaIS2_EE5beginEv(ptr noundef nonnull align 8 dereferenceable(48) %0) #5 comdat align 2 {
  %2 = alloca %"struct.std::_Rb_tree_const_iterator", align 8
  %3 = alloca ptr, align 8
  store ptr %0, ptr %3, align 8
  %4 = load ptr, ptr %3, align 8
  %5 = getelementptr inbounds %"class.std::_Rb_tree.63", ptr %4, i32 0, i32 0
  %6 = getelementptr inbounds i8, ptr %5, i64 8
  %7 = getelementptr inbounds %"struct.std::_Rb_tree_header", ptr %6, i32 0, i32 0
  %8 = getelementptr inbounds %"struct.std::_Rb_tree_node_base", ptr %7, i32 0, i32 2
  %9 = load ptr, ptr %8, align 8
  call void @_ZNSt23_Rb_tree_const_iteratorIPK6AstVarEC2EPKSt18_Rb_tree_node_base(ptr noundef nonnull align 8 dereferenceable(8) %2, ptr noundef %9) #3
  %10 = getelementptr inbounds %"struct.std::_Rb_tree_const_iterator", ptr %2, i32 0, i32 0
  %11 = load ptr, ptr %10, align 8
  ret ptr %11
}

; Function Attrs: mustprogress nounwind uwtable
define internal noundef ptr @_ZNK6VNUser2toIPN12_GLOBAL__N_114StmtPropertiesEEENSt9enable_ifIXsr3std10is_pointerIT_EE5valueES5_E4typeEv(ptr noundef nonnull align 8 dereferenceable(8) %0) #5 align 2 {
  %2 = alloca ptr, align 8
  store ptr %0, ptr %2, align 8
  %3 = load ptr, ptr %2, align 8
  %4 = getelementptr inbounds %class.VNUser, ptr %3, i32 0, i32 0
  %5 = load ptr, ptr %4, align 8
  ret ptr %5
}

; Function Attrs: mustprogress uwtable
define linkonce_odr dso_local ptr @_ZNK7AstNode6user3uEv(ptr noundef nonnull align 8 dereferenceable(152) %0) #4 comdat align 2 {
  %2 = alloca %class.VNUser, align 8
  %3 = alloca ptr, align 8
  store ptr %0, ptr %3, align 8
  %4 = load ptr, ptr %3, align 8
  %5 = getelementptr inbounds %class.AstNode, ptr %4, i32 0, i32 21
  %6 = load i32, ptr %5, align 8
  %7 = load i32, ptr @_ZN12VNUser3InUse12s_userCntGblE, align 4
  %8 = icmp eq i32 %6, %7
  br i1 %8, label %9, label %11

9:                                                ; preds = %1
  %10 = getelementptr inbounds %class.AstNode, ptr %4, i32 0, i32 20
  call void @llvm.memcpy.p0.p0.i64(ptr align 8 %2, ptr align 8 %10, i64 8, i1 false)
  br label %12

11:                                               ; preds = %1
  call void @_ZN6VNUserC2Ei(ptr noundef nonnull align 8 dereferenceable(8) %2, i32 noundef 0)
  br label %12

12:                                               ; preds = %11, %9
  %13 = getelementptr inbounds %class.VNUser, ptr %2, i32 0, i32 0
  %14 = getelementptr inbounds %union.anon.52, ptr %13, i32 0, i32 0
  %15 = load ptr, ptr %14, align 8
  ret ptr %15
}

; Function Attrs: mustprogress nounwind uwtable
define linkonce_odr dso_local noundef nonnull align 8 dereferenceable(8) ptr @_ZNSt23_Rb_tree_const_iteratorIPK6AstVarEppEv(ptr noundef nonnull align 8 dereferenceable(8) %0) #5 comdat align 2 {
  %2 = alloca ptr, align 8
  store ptr %0, ptr %2, align 8
  %3 = load ptr, ptr %2, align 8
  %4 = getelementptr inbounds %"struct.std::_Rb_tree_const_iterator", ptr %3, i32 0, i32 0
  %5 = load ptr, ptr %4, align 8
  %6 = call noundef ptr @_ZSt18_Rb_tree_incrementPKSt18_Rb_tree_node_base(ptr noundef %5) #16
  %7 = getelementptr inbounds %"struct.std::_Rb_tree_const_iterator", ptr %3, i32 0, i32 0
  store ptr %6, ptr %7, align 8
  ret ptr %3
}

; Function Attrs: mustprogress uwtable
define linkonce_odr dso_local noundef i32 @_ZNK7AstNode5user1Ev(ptr noundef nonnull align 8 dereferenceable(152) %0) #4 comdat align 2 {
  %2 = alloca ptr, align 8
  %3 = alloca %class.VNUser, align 8
  store ptr %0, ptr %2, align 8
  %4 = load ptr, ptr %2, align 8
  %5 = call ptr @_ZNK7AstNode6user1uEv(ptr noundef nonnull align 8 dereferenceable(152) %4)
  %6 = getelementptr inbounds %class.VNUser, ptr %3, i32 0, i32 0
  %7 = getelementptr inbounds %union.anon.52, ptr %6, i32 0, i32 0
  store ptr %5, ptr %7, align 8
  %8 = call noundef i32 @_ZNK6VNUser5toIntEv(ptr noundef nonnull align 8 dereferenceable(8) %3)
  ret i32 %8
}

; Function Attrs: mustprogress nounwind uwtable
define linkonce_odr dso_local noundef nonnull align 8 dereferenceable(8) ptr @_ZNKSt23_Rb_tree_const_iteratorIPK6AstVarEdeEv(ptr noundef nonnull align 8 dereferenceable(8) %0) #5 comdat align 2 {
  %2 = alloca ptr, align 8
  store ptr %0, ptr %2, align 8
  %3 = load ptr, ptr %2, align 8
  %4 = getelementptr inbounds %"struct.std::_Rb_tree_const_iterator", ptr %3, i32 0, i32 0
  %5 = load ptr, ptr %4, align 8
  %6 = call noundef ptr @_ZNKSt13_Rb_tree_nodeIPK6AstVarE9_M_valptrEv(ptr noundef nonnull align 8 dereferenceable(40) %5)
  ret ptr %6
}

; Function Attrs: mustprogress nounwind uwtable
define linkonce_odr dso_local noundef zeroext i1 @_ZStneRKSt23_Rb_tree_const_iteratorIPK6AstVarES5_(ptr noundef nonnull align 8 dereferenceable(8) %0, ptr noundef nonnull align 8 dereferenceable(8) %1) #5 comdat {
  %3 = alloca ptr, align 8
  %4 = alloca ptr, align 8
  store ptr %0, ptr %3, align 8
  store ptr %1, ptr %4, align 8
  %5 = load ptr, ptr %3, align 8
  %6 = getelementptr inbounds %"struct.std::_Rb_tree_const_iterator", ptr %5, i32 0, i32 0
  %7 = load ptr, ptr %6, align 8
  %8 = load ptr, ptr %4, align 8
  %9 = getelementptr inbounds %"struct.std::_Rb_tree_const_iterator", ptr %8, i32 0, i32 0
  %10 = load ptr, ptr %9, align 8
  %11 = icmp ne ptr %7, %10
  ret i1 %11
}

; Function Attrs: mustprogress nounwind uwtable
define linkonce_odr dso_local ptr @_ZNKSt3setIPK6AstVarSt4lessIS2_ESaIS2_EE3endEv(ptr noundef nonnull align 8 dereferenceable(48) %0) #5 comdat align 2 {
  %2 = alloca %"struct.std::_Rb_tree_const_iterator", align 8
  %3 = alloca ptr, align 8
  store ptr %0, ptr %3, align 8
  %4 = load ptr, ptr %3, align 8
  %5 = getelementptr inbounds %"class.std::set.62", ptr %4, i32 0, i32 0
  %6 = call ptr @_ZNKSt8_Rb_treeIPK6AstVarS2_St9_IdentityIS2_ESt4lessIS2_ESaIS2_EE3endEv(ptr noundef nonnull align 8 dereferenceable(48) %5) #3
  %7 = getelementptr inbounds %"struct.std::_Rb_tree_const_iterator", ptr %2, i32 0, i32 0
  store ptr %6, ptr %7, align 8
  %8 = getelementptr inbounds %"struct.std::_Rb_tree_const_iterator", ptr %2, i32 0, i32 0
  %9 = load ptr, ptr %8, align 8
  ret ptr %9
}

; Function Attrs: mustprogress nounwind uwtable
define linkonce_odr dso_local ptr @_ZNKSt3setIPK6AstVarSt4lessIS2_ESaIS2_EE5beginEv(ptr noundef nonnull align 8 dereferenceable(48) %0) #5 comdat align 2 {
  %2 = alloca %"struct.std::_Rb_tree_const_iterator", align 8
  %3 = alloca ptr, align 8
  store ptr %0, ptr %3, align 8
  %4 = load ptr, ptr %3, align 8
  %5 = getelementptr inbounds %"class.std::set.62", ptr %4, i32 0, i32 0
  %6 = call ptr @_ZNKSt8_Rb_treeIPK6AstVarS2_St9_IdentityIS2_ESt4lessIS2_ESaIS2_EE5beginEv(ptr noundef nonnull align 8 dereferenceable(48) %5) #3
  %7 = getelementptr inbounds %"struct.std::_Rb_tree_const_iterator", ptr %2, i32 0, i32 0
  store ptr %6, ptr %7, align 8
  %8 = getelementptr inbounds %"struct.std::_Rb_tree_const_iterator", ptr %2, i32 0, i32 0
  %9 = load ptr, ptr %8, align 8
  ret ptr %9
}

; Function Attrs: mustprogress nounwind uwtable
define linkonce_odr dso_local void @_ZN11V3ErrorCodeC2ENS_2enE(ptr noundef nonnull align 1 dereferenceable(1) %0, i8 noundef zeroext %1) unnamed_addr #5 comdat align 2 {
  %3 = alloca ptr, align 8
  %4 = alloca i8, align 1
  store ptr %0, ptr %3, align 8
  store i8 %1, ptr %4, align 1
  %5 = load ptr, ptr %3, align 8
  %6 = getelementptr inbounds %class.V3ErrorCode, ptr %5, i32 0, i32 0
  %7 = load i8, ptr %4, align 1
  store i8 %7, ptr %6, align 1
  ret void
}

; Function Attrs: mustprogress uwtable
define internal noundef ptr @_ZNK20AstUserAllocatorBaseI11AstNodeStmtN12_GLOBAL__N_114StmtPropertiesELi3EE8getUserpEPKS0_(ptr noundef nonnull align 8 dereferenceable(80) %0, ptr noundef %1) #4 align 2 {
  %3 = alloca ptr, align 8
  %4 = alloca ptr, align 8
  %5 = alloca %class.VNUser, align 8
  store ptr %0, ptr %3, align 8
  store ptr %1, ptr %4, align 8
  %6 = load ptr, ptr %4, align 8
  %7 = call ptr @_ZNK7AstNode6user3uEv(ptr noundef nonnull align 8 dereferenceable(152) %6)
  %8 = getelementptr inbounds %class.VNUser, ptr %5, i32 0, i32 0
  %9 = getelementptr inbounds %union.anon.52, ptr %8, i32 0, i32 0
  store ptr %7, ptr %9, align 8
  %10 = call noundef ptr @_ZNK6VNUser2toIPN12_GLOBAL__N_114StmtPropertiesEEENSt9enable_ifIXsr3std10is_pointerIT_EE5valueES5_E4typeEv(ptr noundef nonnull align 8 dereferenceable(8) %5)
  ret ptr %10
}

; Function Attrs: mustprogress uwtable
define internal noundef zeroext i1 @_ZNK12_GLOBAL__N_114StmtProperties18writesConditionVarEv(ptr noundef nonnull align 8 dereferenceable(120) %0) #4 align 2 {
  %2 = alloca i1, align 1
  %3 = alloca ptr, align 8
  %4 = alloca ptr, align 8
  %5 = alloca %"struct.std::_Rb_tree_const_iterator", align 8
  %6 = alloca %"struct.std::_Rb_tree_const_iterator", align 8
  %7 = alloca ptr, align 8
  store ptr %0, ptr %3, align 8
  %8 = load ptr, ptr %3, align 8
  %9 = getelementptr inbounds %"struct.(anonymous namespace)::StmtProperties", ptr %8, i32 0, i32 2
  store ptr %9, ptr %4, align 8
  %10 = load ptr, ptr %4, align 8
  %11 = call ptr @_ZNKSt3setIPK6AstVarSt4lessIS2_ESaIS2_EE5beginEv(ptr noundef nonnull align 8 dereferenceable(48) %10) #3
  %12 = getelementptr inbounds %"struct.std::_Rb_tree_const_iterator", ptr %5, i32 0, i32 0
  store ptr %11, ptr %12, align 8
  %13 = load ptr, ptr %4, align 8
  %14 = call ptr @_ZNKSt3setIPK6AstVarSt4lessIS2_ESaIS2_EE3endEv(ptr noundef nonnull align 8 dereferenceable(48) %13) #3
  %15 = getelementptr inbounds %"struct.std::_Rb_tree_const_iterator", ptr %6, i32 0, i32 0
  store ptr %14, ptr %15, align 8
  br label %16

16:                                               ; preds = %26, %1
  %17 = call noundef zeroext i1 @_ZStneRKSt23_Rb_tree_const_iteratorIPK6AstVarES5_(ptr noundef nonnull align 8 dereferenceable(8) %5, ptr noundef nonnull align 8 dereferenceable(8) %6) #3
  br i1 %17, label %18, label %28

18:                                               ; preds = %16
  %19 = call noundef nonnull align 8 dereferenceable(8) ptr @_ZNKSt23_Rb_tree_const_iteratorIPK6AstVarEdeEv(ptr noundef nonnull align 8 dereferenceable(8) %5) #3
  %20 = load ptr, ptr %19, align 8
  store ptr %20, ptr %7, align 8
  %21 = load ptr, ptr %7, align 8
  %22 = call noundef i32 @_ZNK7AstNode5user1Ev(ptr noundef nonnull align 8 dereferenceable(152) %21)
  %23 = icmp ne i32 %22, 0
  br i1 %23, label %24, label %25

24:                                               ; preds = %18
  store i1 true, ptr %2, align 1
  br label %29

25:                                               ; preds = %18
  br label %26

26:                                               ; preds = %25
  %27 = call noundef nonnull align 8 dereferenceable(8) ptr @_ZNSt23_Rb_tree_const_iteratorIPK6AstVarEppEv(ptr noundef nonnull align 8 dereferenceable(8) %5) #3
  br label %16

28:                                               ; preds = %16
  store i1 false, ptr %2, align 1
  br label %29

29:                                               ; preds = %28, %24
  %30 = load i1, ptr %2, align 1
  ret i1 %30
}

; Function Attrs: mustprogress uwtable
define internal noundef nonnull align 8 dereferenceable(120) ptr @_ZNK20AstUserAllocatorBaseI11AstNodeStmtN12_GLOBAL__N_114StmtPropertiesELi3EEclEPKS0_(ptr noundef nonnull align 8 dereferenceable(80) %0, ptr noundef %1) #4 align 2 {
  %3 = alloca ptr, align 8
  %4 = alloca ptr, align 8
  %5 = alloca ptr, align 8
  %6 = alloca %class.V3ErrorCode, align 1
  store ptr %0, ptr %3, align 8
  store ptr %1, ptr %4, align 8
  %7 = load ptr, ptr %3, align 8
  %8 = load ptr, ptr %4, align 8
  %9 = call noundef ptr @_ZNK20AstUserAllocatorBaseI11AstNodeStmtN12_GLOBAL__N_114StmtPropertiesELi3EE8getUserpEPKS0_(ptr noundef nonnull align 8 dereferenceable(80) %7, ptr noundef %8)
  store ptr %9, ptr %5, align 8
  br label %10

10:                                               ; preds = %2
  %11 = load ptr, ptr %5, align 8
  %12 = icmp ne ptr %11, null
  %13 = xor i1 %12, true
  %14 = xor i1 %13, true
  %15 = xor i1 %14, true
  br i1 %15, label %16, label %23

16:                                               ; preds = %10
  %17 = load ptr, ptr %4, align 8
  call void @_ZN11V3ErrorCodeC2ENS_2enE(ptr noundef nonnull align 1 dereferenceable(1) %6, i8 noundef zeroext 4)
  %18 = getelementptr inbounds %class.V3ErrorCode, ptr %6, i32 0, i32 0
  %19 = load i8, ptr %18, align 1
  %20 = call noundef nonnull align 8 dereferenceable(112) ptr @_ZN7V3Error19v3errorPrepFileLineB5cxx11E11V3ErrorCodePKcib(i8 %19, ptr noundef @.str.443, i32 noundef 97, i1 noundef zeroext true)
  %21 = call noundef nonnull align 8 dereferenceable(112) ptr @_ZN7V3Error10v3errorStrB5cxx11Ev()
  %22 = call noundef nonnull align 8 dereferenceable(8) ptr @_ZStlsISt11char_traitsIcEERSt13basic_ostreamIcT_ES5_PKc(ptr noundef nonnull align 8 dereferenceable(8) %21, ptr noundef @.str.444)
  call void @_ZNK7AstNode15v3errorEndFatalERNSt7__cxx1119basic_ostringstreamIcSt11char_traitsIcESaIcEEE(ptr noundef nonnull align 8 dereferenceable(152) %17, ptr noundef nonnull align 8 dereferenceable(112) %22) #18
  unreachable

23:                                               ; preds = %10
  br label %24

24:                                               ; preds = %23
  %25 = load ptr, ptr %5, align 8
  ret ptr %25
}

; Function Attrs: mustprogress uwtable
define internal noundef zeroext i1 @_ZN12_GLOBAL__N_116MergeCondVisitor20checkOrMakeMergeableEPK11AstNodeStmt(ptr noundef nonnull align 8 dereferenceable(120) %0, ptr noundef %1) #4 align 2 {
  %3 = alloca i1, align 1
  %4 = alloca ptr, align 8
  %5 = alloca ptr, align 8
  %6 = alloca ptr, align 8
  store ptr %0, ptr %4, align 8
  store ptr %1, ptr %5, align 8
  %7 = load ptr, ptr %4, align 8
  %8 = getelementptr inbounds %"class.(anonymous namespace)::MergeCondVisitor", ptr %7, i32 0, i32 11
  %9 = load ptr, ptr %8, align 8
  %10 = load ptr, ptr %5, align 8
  %11 = call noundef nonnull align 8 dereferenceable(120) ptr @_ZNK20AstUserAllocatorBaseI11AstNodeStmtN12_GLOBAL__N_114StmtPropertiesELi3EEclEPKS0_(ptr noundef nonnull align 8 dereferenceable(80) %9, ptr noundef %10)
  store ptr %11, ptr %6, align 8
  %12 = load ptr, ptr %6, align 8
  %13 = getelementptr inbounds %"struct.(anonymous namespace)::StmtProperties", ptr %12, i32 0, i32 3
  %14 = load i8, ptr %13, align 8
  %15 = trunc i8 %14 to i1
  br i1 %15, label %16, label %17

16:                                               ; preds = %2
  store i1 false, ptr %3, align 1
  br label %26

17:                                               ; preds = %2
  %18 = getelementptr inbounds %"class.(anonymous namespace)::MergeCondVisitor", ptr %7, i32 0, i32 5
  %19 = load ptr, ptr %18, align 8
  %20 = icmp ne ptr %19, null
  br i1 %20, label %21, label %25

21:                                               ; preds = %17
  %22 = load ptr, ptr %6, align 8
  %23 = call noundef zeroext i1 @_ZNK12_GLOBAL__N_114StmtProperties18writesConditionVarEv(ptr noundef nonnull align 8 dereferenceable(120) %22)
  br i1 %23, label %24, label %25

24:                                               ; preds = %21
  call void @_ZN12_GLOBAL__N_116MergeCondVisitor8mergeEndEv(ptr noundef nonnull align 8 dereferenceable(120) %7)
  br label %25

25:                                               ; preds = %24, %21, %17
  store i1 true, ptr %3, align 1
  br label %26

26:                                               ; preds = %25, %16
  %27 = load i1, ptr %3, align 1
  ret i1 %27
}