; Function Attrs: mustprogress uwtable
define internal fastcc noundef zeroext i1 @_ZN12_GLOBAL__N_116MergeCondVisitor20checkOrMakeMergeableEPK11AstNodeStmt(ptr noundef nonnull align 8 dereferenceable(120) %0, ptr noundef %1) unnamed_addr #3 align 2 {
  %3 = getelementptr i8, ptr %1, i64 128
  %.val.i = load i64, ptr %3, align 8
  %4 = getelementptr i8, ptr %1, i64 136
  %.val5.i = load i32, ptr %4, align 8
  %5 = load i32, ptr @_ZN12VNUser3InUse12s_userCntGblE, align 4
  %6 = icmp ne i32 %5, %.val5.i
  %.not1.i = icmp eq i64 %.val.i, 0
  %.not.i = select i1 %6, i1 true, i1 %.not1.i
  br i1 %.not.i, label %7, label %_ZNK20AstUserAllocatorBaseI11AstNodeStmtN12_GLOBAL__N_114StmtPropertiesELi3EEclEPKS0_.exit

7:                                                ; preds = %2
  %8 = tail call noundef nonnull align 8 dereferenceable(112) ptr @_ZN7V3Error19v3errorPrepFileLineB5cxx11E11V3ErrorCodePKcib(i8 4, ptr noundef nonnull @.str.443, i32 noundef 97, i1 noundef zeroext true)
  %9 = tail call noundef nonnull align 8 dereferenceable(112) ptr @_ZN7V3Error10v3errorStrB5cxx11Ev()
  %10 = tail call noundef nonnull align 8 dereferenceable(8) ptr @_ZStlsISt11char_traitsIcEERSt13basic_ostreamIcT_ES5_PKc(ptr noundef nonnull align 8 dereferenceable(8) %9, ptr noundef nonnull @.str.444)
  tail call void @_ZNK7AstNode15v3errorEndFatalERNSt7__cxx1119basic_ostringstreamIcSt11char_traitsIcESaIcEEE(ptr noundef nonnull align 8 dereferenceable(152) %1, ptr noundef nonnull align 8 dereferenceable(112) %10) #27
  unreachable

_ZNK20AstUserAllocatorBaseI11AstNodeStmtN12_GLOBAL__N_114StmtPropertiesELi3EEclEPKS0_.exit: ; preds = %2
  %11 = inttoptr i64 %.val.i to ptr
  %12 = getelementptr inbounds i8, ptr %11, i64 104
  %13 = load i8, ptr %12, align 8
  %14 = and i8 %13, 1
  %.not = icmp eq i8 %14, 0
  %15 = getelementptr inbounds i8, ptr %0, i64 64
  %16 = load ptr, ptr %15, align 8
  %.not5 = icmp ne ptr %16, null
  %or.cond.not = select i1 %.not, i1 %.not5, i1 false
  br i1 %or.cond.not, label %17, label %_ZNK12_GLOBAL__N_114StmtProperties18writesConditionVarEv.exit.thread

17:                                               ; preds = %_ZNK20AstUserAllocatorBaseI11AstNodeStmtN12_GLOBAL__N_114StmtPropertiesELi3EEclEPKS0_.exit
  %18 = getelementptr inbounds i8, ptr %11, i64 80
  %19 = load ptr, ptr %18, align 8
  %20 = getelementptr inbounds i8, ptr %11, i64 64
  %.not12.i = icmp eq ptr %19, %20
  br i1 %.not12.i, label %_ZNK12_GLOBAL__N_114StmtProperties18writesConditionVarEv.exit.thread, label %.lr.ph.i

.lr.ph.i:                                         ; preds = %17
  %21 = load i32, ptr @_ZN12VNUser1InUse12s_userCntGblE, align 4
  br label %22

22:                                               ; preds = %31, %.lr.ph.i
  %.sroa.05.09.i = phi ptr [ %19, %.lr.ph.i ], [ %32, %31 ]
  %23 = getelementptr inbounds i8, ptr %.sroa.05.09.i, i64 32
  %24 = load ptr, ptr %23, align 8
  %25 = getelementptr inbounds i8, ptr %24, i64 112
  %26 = load i32, ptr %25, align 8
  %27 = icmp eq i32 %26, %21
  %28 = getelementptr inbounds i8, ptr %24, i64 104
  %29 = load i64, ptr %28, align 8
  %30 = and i64 %29, 4294967295
  %.not8.i = icmp ne i64 %30, 0
  %.not.not.i = select i1 %27, i1 %.not8.i, i1 false
  br i1 %.not.not.i, label %_ZNK12_GLOBAL__N_114StmtProperties18writesConditionVarEv.exit, label %31

31:                                               ; preds = %22
  %32 = tail call noundef ptr @_ZSt18_Rb_tree_incrementPKSt18_Rb_tree_node_base(ptr noundef nonnull %.sroa.05.09.i) #24
  %.not13.i = icmp eq ptr %32, %20
  br i1 %.not13.i, label %_ZNK12_GLOBAL__N_114StmtProperties18writesConditionVarEv.exit.thread, label %22

_ZNK12_GLOBAL__N_114StmtProperties18writesConditionVarEv.exit: ; preds = %22
  tail call fastcc void @_ZN12_GLOBAL__N_116MergeCondVisitor8mergeEndEv(ptr noundef nonnull align 8 dereferenceable(120) %0)
  br label %_ZNK12_GLOBAL__N_114StmtProperties18writesConditionVarEv.exit.thread

_ZNK12_GLOBAL__N_114StmtProperties18writesConditionVarEv.exit.thread: ; preds = %31, %17, %_ZNK12_GLOBAL__N_114StmtProperties18writesConditionVarEv.exit, %_ZNK20AstUserAllocatorBaseI11AstNodeStmtN12_GLOBAL__N_114StmtPropertiesELi3EEclEPKS0_.exit
  ret i1 %.not
}